; Function Attrs: mustprogress uwtable
define noundef i64 @_ZN11duckdb_zstd32ZSTD_decompressStream_simpleArgsEPNS_11ZSTD_DCtx_sEPvmPmPKvmS3_(ptr noundef %0, ptr noundef %1, i64 noundef %2, ptr noundef captures(none) %3, ptr noundef %4, i64 noundef %5, ptr noundef captures(none) %6) local_unnamed_addr #0 {
  %8 = alloca %"struct.duckdb_zstd::ZSTD_outBuffer_s", align 8
  %9 = alloca %"struct.duckdb_zstd::ZSTD_inBuffer_s", align 8
  call void @llvm.lifetime.start.p0(i64 24, ptr nonnull %8) #17
  call void @llvm.lifetime.start.p0(i64 24, ptr nonnull %9) #17
  store ptr %1, ptr %8, align 8, !tbaa !137
  %10 = getelementptr inbounds nuw i8, ptr %8, i64 8
  store i64 %2, ptr %10, align 8, !tbaa !139
  %11 = load i64, ptr %3, align 8, !tbaa !57
  %12 = getelementptr inbounds nuw i8, ptr %8, i64 16
  store i64 %11, ptr %12, align 8, !tbaa !138
  store ptr %4, ptr %9, align 8, !tbaa !133
  %13 = getelementptr inbounds nuw i8, ptr %9, i64 8
  store i64 %5, ptr %13, align 8, !tbaa !136
  %14 = load i64, ptr %6, align 8, !tbaa !57
  %15 = getelementptr inbounds nuw i8, ptr %9, i64 16
  store i64 %14, ptr %15, align 8, !tbaa !135
  %16 = call noundef i64 @_ZN11duckdb_zstd21ZSTD_decompressStreamEPNS_11ZSTD_DCtx_sEPNS_16ZSTD_outBuffer_sEPNS_15ZSTD_inBuffer_sE(ptr noundef %0, ptr noundef nonnull %8, ptr noundef nonnull %9)
  %17 = load i64, ptr %12, align 8, !tbaa !138
  store i64 %17, ptr %3, align 8, !tbaa !57
  %18 = load i64, ptr %15, align 8, !tbaa !135
  store i64 %18, ptr %6, align 8, !tbaa !57
  call void @llvm.lifetime.end.p0(i64 24, ptr nonnull %9) #17
  call void @llvm.lifetime.end.p0(i64 24, ptr nonnull %8) #17
  ret i64 %16
}